#include <math.h>
#include <stdio.h>
#include <stdlib.h>
#include <string.h>



int main()
{
    int a,max=0,secmax=0;
    char b;
    
    do
    {
         scanf("%d%c",&a,&b);
         if (max<a){
                    secmax=max;
                    max=a;
                    }
         else if(a<max&&a>secmax){
              secmax=a;
              }
         else if(a==max||a==secmax){}
         else if(a<secmax){}
      
      
    }
    while(b==',');
         if (secmax==0){printf("No\n");}
         
         else{printf("%d\n",secmax);}
        
    
    
 
      
       
       
  
  	
  return 0;
}
